Certificate:
    Data:
        Version: 3 (0x2)
        Serial Number: 2 (0x2)
        Signature Algorithm: sha1WithRSAEncryption
        Issuer: C=DE, ST=NRW, L=Bonn, O=Freifunk-Bonn, CN=Freifunk-Bonn CA
        Validity
            Not Before: Feb 19 11:00:45 2009 GMT
            Not After : Feb 17 11:00:45 2019 GMT
        Subject: C=DE, ST=NRW, L=Bonn, O=Freifunk-Bonn, CN=VPN-Client Freifunk-Bonn
        Subject Public Key Info:
            Public Key Algorithm: rsaEncryption
            RSA Public Key: (1024 bit)
                Modulus (1024 bit):
                    00:ed:4c:80:40:e4:a6:99:36:e6:9b:88:4a:f1:54:
                    f7:0d:e0:66:1b:6e:9a:a5:44:ac:80:8e:86:85:0d:
                    48:79:e7:54:0e:7b:60:f5:5c:02:47:4e:22:d4:d9:
                    79:c4:bc:d4:42:33:92:17:38:76:60:84:d5:dc:38:
                    41:e2:6c:46:d3:7a:9e:ea:9e:87:3a:1c:b4:2b:b0:
                    47:47:e9:a2:45:fc:a5:9d:eb:fc:11:86:21:c6:5b:
                    df:db:a9:97:1a:4b:a5:8f:52:99:2d:86:e0:66:e2:
                    67:24:07:1f:9e:9b:a8:c6:b4:a8:19:91:5a:e9:f8:
                    3e:25:7a:30:a1:f8:ea:9c:9b
                Exponent: 65537 (0x10001)
        X509v3 extensions:
            X509v3 Basic Constraints: 
                CA:FALSE
            Netscape Comment: 
                Easy-RSA Generated Certificate
            X509v3 Subject Key Identifier: 
                FF:57:66:16:27:98:43:D6:C7:04:7B:2C:F1:94:39:A9:B9:73:C0:25
            X509v3 Authority Key Identifier: 
                keyid:5B:6A:F8:BF:F3:78:27:EF:E2:F7:1F:47:5B:68:08:A4:F6:43:6E:ED
                DirName:/C=DE/ST=NRW/L=Bonn/O=Freifunk-Bonn/CN=Freifunk-Bonn CA
                serial:DC:A8:04:93:FF:9B:7D:25

            X509v3 Extended Key Usage: 
                TLS Web Client Authentication
            X509v3 Key Usage: 
                Digital Signature
    Signature Algorithm: sha1WithRSAEncryption
        0a:1c:b0:55:03:a9:0e:4b:ec:80:5d:06:04:04:2b:54:87:f6:
        55:08:76:b2:0d:66:b0:0d:89:86:d6:0e:f3:7d:2e:58:f7:73:
        b6:07:1c:61:51:40:e6:36:4e:07:32:62:77:b6:07:c4:ea:3f:
        46:58:61:08:ff:16:01:28:75:16:b1:c1:83:44:ab:f5:d3:43:
        b8:a6:be:fd:cc:24:79:6e:81:51:6c:f5:22:be:19:31:b5:55:
        c1:a2:85:33:89:e7:24:99:fd:fd:2f:19:cb:8b:59:42:a1:6a:
        9b:bd:13:8c:6a:d4:20:4f:4b:f6:4e:e6:f4:2f:85:54:56:86:
        5c:c5
-----BEGIN CERTIFICATE-----
MIIDSzCCArSgAwIBAgIBAjANBgkqhkiG9w0BAQUFADBdMQswCQYDVQQGEwJERTEM
MAoGA1UECBMDTlJXMQ0wCwYDVQQHEwRCb25uMRYwFAYDVQQKEw1GcmVpZnVuay1C
b25uMRkwFwYDVQQDExBGcmVpZnVuay1Cb25uIENBMB4XDTA5MDIxOTExMDA0NVoX
DTE5MDIxNzExMDA0NVowZTELMAkGA1UEBhMCREUxDDAKBgNVBAgTA05SVzENMAsG
A1UEBxMEQm9ubjEWMBQGA1UEChMNRnJlaWZ1bmstQm9ubjEhMB8GA1UEAxMYVlBO
LUNsaWVudCBGcmVpZnVuay1Cb25uMIGfMA0GCSqGSIb3DQEBAQUAA4GNADCBiQKB
gQDtTIBA5KaZNuabiErxVPcN4GYbbpqlRKyAjoaFDUh551QOe2D1XAJHTiLU2XnE
vNRCM5IXOHZghNXcOEHibEbTep7qnoc6HLQrsEdH6aJF/KWd6/wRhiHGW9/bqZca
S6WPUpkthuBm4mckBx+em6jGtKgZkVrp+D4lejCh+OqcmwIDAQABo4IBETCCAQ0w
CQYDVR0TBAIwADAtBglghkgBhvhCAQ0EIBYeRWFzeS1SU0EgR2VuZXJhdGVkIENl
cnRpZmljYXRlMB0GA1UdDgQWBBT/V2YWJ5hD1scEeyzxlDmpuXPAJTCBjwYDVR0j
BIGHMIGEgBRbavi/83gn7+L3H0dbaAik9kNu7aFhpF8wXTELMAkGA1UEBhMCREUx
DDAKBgNVBAgTA05SVzENMAsGA1UEBxMEQm9ubjEWMBQGA1UEChMNRnJlaWZ1bmst
Qm9ubjEZMBcGA1UEAxMQRnJlaWZ1bmstQm9ubiBDQYIJANyoBJP/m30lMBMGA1Ud
JQQMMAoGCCsGAQUFBwMCMAsGA1UdDwQEAwIHgDANBgkqhkiG9w0BAQUFAAOBgQAK
HLBVA6kOS+yAXQYEBCtUh/ZVCHayDWawDYmG1g7zfS5Y93O2BxxhUUDmNk4HMmJ3
tgfE6j9GWGEI/xYBKHUWscGDRKv100O4pr79zCR5boFRbPUivhkxtVXBooUzieck
mf39LxnLi1lCoWqbvROMatQgT0v2Tub0L4VUVoZcxQ==
-----END CERTIFICATE-----
